target datalayout = "e-m:e-p270:32:32-p271:32:32-p272:64:64-i64:64-i128:128-f80:128-n8:16:32:64-S128"
target triple = "x86_64-pc-linux-gnu"

%"struct.Luau::CodeGen::BlockLinearizationStats" = type { i32, double }

@.str.68 = private unnamed_addr constant [3 x i8] c"{\0A\00", align 1
@.str.69 = private unnamed_addr constant [50 x i8] c"                \22constPropInstructionCount\22: %u,\0A\00", align 1
@.str.70 = private unnamed_addr constant [35 x i8] c"                \22timeSeconds\22: %f\0A\00", align 1
@.str.71 = private unnamed_addr constant [14 x i8] c"            }\00", align 1

; Function Attrs: mustprogress nounwind uwtable
define dso_local void @_Z32serializeBlockLinearizationStatsP8_IO_FILERKN4Luau7CodeGen23BlockLinearizationStatsE(ptr noundef %0, ptr noundef nonnull align 8 dereferenceable(16) %1) #1 {
  %3 = alloca ptr, align 8
  %4 = alloca ptr, align 8
  store ptr %0, ptr %3, align 8
  store ptr %1, ptr %4, align 8
  %5 = load ptr, ptr %3, align 8
  %6 = call i32 (ptr, ptr, ...) @fprintf(ptr noundef %5, ptr noundef @.str.68) #16
  %7 = load ptr, ptr %3, align 8
  %8 = load ptr, ptr %4, align 8
  %9 = getelementptr inbounds %"struct.Luau::CodeGen::BlockLinearizationStats", ptr %8, i32 0, i32 0
  %10 = load i32, ptr %9, align 8
  %11 = call i32 (ptr, ptr, ...) @fprintf(ptr noundef %7, ptr noundef @.str.69, i32 noundef %10) #16
  %12 = load ptr, ptr %3, align 8
  %13 = load ptr, ptr %4, align 8
  %14 = getelementptr inbounds %"struct.Luau::CodeGen::BlockLinearizationStats", ptr %13, i32 0, i32 1
  %15 = load double, ptr %14, align 8
  %16 = call i32 (ptr, ptr, ...) @fprintf(ptr noundef %12, ptr noundef @.str.70, double noundef %15) #16
  %17 = load ptr, ptr %3, align 8
  %18 = call i32 (ptr, ptr, ...) @fprintf(ptr noundef %17, ptr noundef @.str.71) #16
  ret void
}