; Function Attrs: mustprogress nofree nounwind uwtable
define dso_local void @_Z32serializeBlockLinearizationStatsP8_IO_FILERKN4Luau7CodeGen23BlockLinearizationStatsE(ptr nocapture noundef %0, ptr nocapture noundef nonnull readonly align 8 dereferenceable(16) %1) local_unnamed_addr #4 {
  %3 = tail call i64 @fwrite(ptr nonnull @.str.68, i64 2, i64 1, ptr %0)
  %4 = load i32, ptr %1, align 8
  %5 = tail call i32 (ptr, ptr, ...) @fprintf(ptr noundef %0, ptr noundef nonnull @.str.69, i32 noundef %4) #23
  %6 = getelementptr inbounds i8, ptr %1, i64 8
  %7 = load double, ptr %6, align 8
  %8 = tail call i32 (ptr, ptr, ...) @fprintf(ptr noundef %0, ptr noundef nonnull @.str.70, double noundef %7) #23
  %9 = tail call i64 @fwrite(ptr nonnull @.str.71, i64 13, i64 1, ptr %0)
  ret void
}